target datalayout = "e-m:e-p270:32:32-p271:32:32-p272:64:64-i64:64-i128:128-f80:128-n8:16:32:64-S128"
target triple = "x86_64-pc-linux-gnu"

%struct.rb_global_entry = type { ptr, i64, i8 }
%struct.rb_global_variable = type { i32, i32, ptr, ptr, ptr, ptr, ptr, ptr }

@rb_global_tbl = internal global ptr null, align 8
@rb_eRactorIsolationError = external global i64, align 8
@.str.40 = private unnamed_addr constant [57 x i8] c"can not access global variables %s from non-main Ractors\00", align 1
@ruby_single_main_ractor = external global ptr, align 8

; Function Attrs: inlinehint nounwind sspstrong uwtable
define internal zeroext i1 @rb_ractor_main_p() #6 {
  %1 = alloca i1, align 1
  %2 = load ptr, ptr @ruby_single_main_ractor, align 8, !tbaa !91
  %3 = icmp ne ptr %2, null
  br i1 %3, label %4, label %5

4:                                                ; preds = %0
  store i1 true, ptr %1, align 1
  br label %7

5:                                                ; preds = %0
  %6 = call zeroext i1 @rb_ractor_main_p_()
  store i1 %6, ptr %1, align 1
  br label %7

7:                                                ; preds = %5, %4
  %8 = load i1, ptr %1, align 1
  ret i1 %8
}

; Function Attrs: nounwind sspstrong uwtable
define internal ptr @rb_find_global_entry(i64 noundef %0) #0 {
  %2 = alloca i64, align 8
  %3 = alloca ptr, align 8
  %4 = alloca i64, align 8
  store i64 %0, ptr %2, align 8, !tbaa !14
  call void @llvm.lifetime.start.p0(i64 8, ptr %3) #30
  call void @llvm.lifetime.start.p0(i64 8, ptr %4) #30
  %5 = load ptr, ptr @rb_global_tbl, align 8, !tbaa !7
  %6 = load i64, ptr %2, align 8, !tbaa !14
  %7 = call i32 @rb_id_table_lookup(ptr noundef %5, i64 noundef %6, ptr noundef %4)
  %8 = icmp ne i32 %7, 0
  br i1 %8, label %10, label %9

9:                                                ; preds = %1
  store ptr null, ptr %3, align 8, !tbaa !52
  br label %13

10:                                               ; preds = %1
  %11 = load i64, ptr %4, align 8, !tbaa !14
  %12 = inttoptr i64 %11 to ptr
  store ptr %12, ptr %3, align 8, !tbaa !52
  br label %13

13:                                               ; preds = %10, %9
  %14 = call zeroext i1 @rb_ractor_main_p()
  %15 = xor i1 %14, true
  %16 = xor i1 %15, true
  %17 = xor i1 %16, true
  %18 = zext i1 %17 to i32
  %19 = sext i32 %18 to i64
  %20 = call i64 @llvm.expect.i64(i64 %19, i64 0)
  %21 = icmp ne i64 %20, 0
  br i1 %21, label %22, label %34

22:                                               ; preds = %13
  %23 = load ptr, ptr %3, align 8, !tbaa !52
  %24 = icmp ne ptr %23, null
  br i1 %24, label %25, label %30

25:                                               ; preds = %22
  %26 = load ptr, ptr %3, align 8, !tbaa !52
  %27 = getelementptr inbounds nuw %struct.rb_global_entry, ptr %26, i32 0, i32 2
  %28 = load i8, ptr %27, align 8, !tbaa !60, !range !30, !noundef !31
  %29 = trunc i8 %28 to i1
  br i1 %29, label %34, label %30

30:                                               ; preds = %25, %22
  %31 = load i64, ptr @rb_eRactorIsolationError, align 8, !tbaa !14
  %32 = load i64, ptr %2, align 8, !tbaa !14
  %33 = call ptr @rb_id2name(i64 noundef %32)
  call void (i64, ptr, ...) @rb_raise(i64 noundef %31, ptr noundef @.str.40, ptr noundef %33) #31
  unreachable

34:                                               ; preds = %25, %13
  %35 = load ptr, ptr %3, align 8, !tbaa !52
  call void @llvm.lifetime.end.p0(i64 8, ptr %4) #30
  call void @llvm.lifetime.end.p0(i64 8, ptr %3) #30
  ret ptr %35
}

; Function Attrs: nounwind sspstrong uwtable
define internal ptr @rb_global_entry(i64 noundef %0) #0 {
  %2 = alloca i64, align 8
  %3 = alloca ptr, align 8
  %4 = alloca ptr, align 8
  store i64 %0, ptr %2, align 8, !tbaa !14
  call void @llvm.lifetime.start.p0(i64 8, ptr %3) #30
  %5 = load i64, ptr %2, align 8, !tbaa !14
  %6 = call ptr @rb_find_global_entry(i64 noundef %5)
  store ptr %6, ptr %3, align 8, !tbaa !52
  %7 = load ptr, ptr %3, align 8, !tbaa !52
  %8 = icmp ne ptr %7, null
  br i1 %8, label %41, label %9

9:                                                ; preds = %1
  call void @llvm.lifetime.start.p0(i64 8, ptr %4) #30
  %10 = call noalias nonnull ptr @ruby_xmalloc(i64 noundef 24) #35
  store ptr %10, ptr %3, align 8, !tbaa !52
  %11 = call noalias nonnull ptr @ruby_xmalloc(i64 noundef 56) #35
  store ptr %11, ptr %4, align 8, !tbaa !62
  %12 = load i64, ptr %2, align 8, !tbaa !14
  %13 = load ptr, ptr %3, align 8, !tbaa !52
  %14 = getelementptr inbounds nuw %struct.rb_global_entry, ptr %13, i32 0, i32 1
  store i64 %12, ptr %14, align 8, !tbaa !68
  %15 = load ptr, ptr %4, align 8, !tbaa !62
  %16 = load ptr, ptr %3, align 8, !tbaa !52
  %17 = getelementptr inbounds nuw %struct.rb_global_entry, ptr %16, i32 0, i32 0
  store ptr %15, ptr %17, align 8, !tbaa !54
  %18 = load ptr, ptr %3, align 8, !tbaa !52
  %19 = getelementptr inbounds nuw %struct.rb_global_entry, ptr %18, i32 0, i32 2
  store i8 0, ptr %19, align 8, !tbaa !60
  %20 = load ptr, ptr %4, align 8, !tbaa !62
  %21 = getelementptr inbounds nuw %struct.rb_global_variable, ptr %20, i32 0, i32 0
  store i32 1, ptr %21, align 8, !tbaa !57
  %22 = load ptr, ptr %4, align 8, !tbaa !62
  %23 = getelementptr inbounds nuw %struct.rb_global_variable, ptr %22, i32 0, i32 2
  store ptr null, ptr %23, align 8, !tbaa !67
  %24 = load ptr, ptr %4, align 8, !tbaa !62
  %25 = getelementptr inbounds nuw %struct.rb_global_variable, ptr %24, i32 0, i32 3
  store ptr @rb_gvar_undef_getter, ptr %25, align 8, !tbaa !63
  %26 = load ptr, ptr %4, align 8, !tbaa !62
  %27 = getelementptr inbounds nuw %struct.rb_global_variable, ptr %26, i32 0, i32 4
  store ptr @rb_gvar_undef_setter, ptr %27, align 8, !tbaa !64
  %28 = load ptr, ptr %4, align 8, !tbaa !62
  %29 = getelementptr inbounds nuw %struct.rb_global_variable, ptr %28, i32 0, i32 5
  store ptr @rb_gvar_undef_marker, ptr %29, align 8, !tbaa !65
  %30 = load ptr, ptr %4, align 8, !tbaa !62
  %31 = getelementptr inbounds nuw %struct.rb_global_variable, ptr %30, i32 0, i32 6
  store ptr @rb_gvar_undef_compactor, ptr %31, align 8, !tbaa !66
  %32 = load ptr, ptr %4, align 8, !tbaa !62
  %33 = getelementptr inbounds nuw %struct.rb_global_variable, ptr %32, i32 0, i32 1
  store i32 0, ptr %33, align 4, !tbaa !69
  %34 = load ptr, ptr %4, align 8, !tbaa !62
  %35 = getelementptr inbounds nuw %struct.rb_global_variable, ptr %34, i32 0, i32 7
  store ptr null, ptr %35, align 8, !tbaa !70
  %36 = load ptr, ptr @rb_global_tbl, align 8, !tbaa !7
  %37 = load i64, ptr %2, align 8, !tbaa !14
  %38 = load ptr, ptr %3, align 8, !tbaa !52
  %39 = ptrtoint ptr %38 to i64
  %40 = call i32 @rb_id_table_insert(ptr noundef %36, i64 noundef %37, i64 noundef %39)
  call void @llvm.lifetime.end.p0(i64 8, ptr %4) #30
  br label %41

41:                                               ; preds = %9, %1
  %42 = load ptr, ptr %3, align 8, !tbaa !52
  call void @llvm.lifetime.end.p0(i64 8, ptr %3) #30
  ret ptr %42
}