; Function Attrs: nounwind sspstrong uwtable
define internal fastcc nonnull ptr @rb_global_entry(i64 noundef %0) unnamed_addr #0 {
  %2 = alloca i64, align 8
  call void @llvm.lifetime.start.p0(i64 8, ptr nonnull %2) #27
  %3 = load ptr, ptr @rb_global_tbl, align 8, !tbaa !7
  %4 = call i32 @rb_id_table_lookup(ptr noundef %3, i64 noundef %0, ptr noundef nonnull %2) #27
  %.not.i = icmp eq i32 %4, 0
  %5 = load i64, ptr %2, align 8
  %6 = inttoptr i64 %5 to ptr
  %.0.i = select i1 %.not.i, ptr null, ptr %6
  %7 = load ptr, ptr @ruby_single_main_ractor, align 8, !tbaa !68
  %.not.i.i = icmp eq ptr %7, null
  br i1 %.not.i.i, label %rb_ractor_main_p.exit.i, label %rb_find_global_entry.exit

rb_ractor_main_p.exit.i:                          ; preds = %1
  %8 = call zeroext i1 @rb_ractor_main_p_() #27
  br i1 %8, label %rb_find_global_entry.exit, label %9, !prof !70

9:                                                ; preds = %rb_ractor_main_p.exit.i
  %.not4.i = icmp eq ptr %.0.i, null
  br i1 %.not4.i, label %14, label %10

10:                                               ; preds = %9
  %11 = getelementptr inbounds nuw i8, ptr %.0.i, i64 16
  %12 = load i8, ptr %11, align 8, !tbaa !71, !range !38, !noundef !72
  %13 = trunc nuw i8 %12 to i1
  br i1 %13, label %rb_find_global_entry.exit.thread, label %14

rb_find_global_entry.exit.thread:                 ; preds = %10
  call void @llvm.lifetime.end.p0(i64 8, ptr nonnull %2) #27
  br label %32

14:                                               ; preds = %10, %9
  %15 = load i64, ptr @rb_eRactorIsolationError, align 8, !tbaa !14
  %16 = call ptr @rb_id2name(i64 noundef %0) #27
  call void (i64, ptr, ...) @rb_raise(i64 noundef %15, ptr noundef nonnull @.str.40, ptr noundef %16) #28
  unreachable

rb_find_global_entry.exit:                        ; preds = %1, %rb_ractor_main_p.exit.i
  call void @llvm.lifetime.end.p0(i64 8, ptr nonnull %2) #27
  %.not = icmp eq ptr %.0.i, null
  br i1 %.not, label %17, label %32

17:                                               ; preds = %rb_find_global_entry.exit
  %18 = call noalias nonnull dereferenceable(24) ptr @ruby_xmalloc(i64 noundef 24) #30
  %19 = call noalias nonnull dereferenceable(56) ptr @ruby_xmalloc(i64 noundef 56) #30
  %20 = getelementptr inbounds nuw i8, ptr %18, i64 8
  store i64 %0, ptr %20, align 8, !tbaa !78
  store ptr %19, ptr %18, align 8, !tbaa !58
  %21 = getelementptr inbounds nuw i8, ptr %18, i64 16
  store i8 0, ptr %21, align 8, !tbaa !71
  store i32 1, ptr %19, align 8, !tbaa !61
  %22 = getelementptr inbounds nuw i8, ptr %19, i64 8
  store ptr null, ptr %22, align 8, !tbaa !77
  %23 = getelementptr inbounds nuw i8, ptr %19, i64 16
  store ptr @rb_gvar_undef_getter, ptr %23, align 8, !tbaa !73
  %24 = getelementptr inbounds nuw i8, ptr %19, i64 24
  store ptr @rb_gvar_undef_setter, ptr %24, align 8, !tbaa !74
  %25 = getelementptr inbounds nuw i8, ptr %19, i64 32
  store ptr @rb_gvar_undef_marker, ptr %25, align 8, !tbaa !75
  %26 = getelementptr inbounds nuw i8, ptr %19, i64 40
  store ptr @rb_gvar_undef_compactor, ptr %26, align 8, !tbaa !76
  %27 = getelementptr inbounds nuw i8, ptr %19, i64 4
  store i32 0, ptr %27, align 4, !tbaa !79
  %28 = getelementptr inbounds nuw i8, ptr %19, i64 48
  store ptr null, ptr %28, align 8, !tbaa !64
  %29 = load ptr, ptr @rb_global_tbl, align 8, !tbaa !7
  %30 = ptrtoint ptr %18 to i64
  %31 = call i32 @rb_id_table_insert(ptr noundef %29, i64 noundef %0, i64 noundef %30) #27
  br label %32

32:                                               ; preds = %rb_find_global_entry.exit.thread, %17, %rb_find_global_entry.exit
  %.0 = phi ptr [ %6, %rb_find_global_entry.exit ], [ %18, %17 ], [ %6, %rb_find_global_entry.exit.thread ]
  ret ptr %.0
}